target datalayout = "e-m:e-p270:32:32-p271:32:32-p272:64:64-i64:64-i128:128-f80:128-n8:16:32:64-S128"
target triple = "x86_64-pc-linux-gnu"

%struct.FunctionCallInfoBaseData = type { ptr, ptr, ptr, i32, i8, i16, [0 x %struct.NullableDatum] }
%struct.NullableDatum = type { i64, i8 }
%struct.varattrib_1b = type { i8, [0 x i8] }
%struct.anon = type { i32, [0 x i8] }
%struct.inet_struct = type { i8, i8, [16 x i8] }

; Function Attrs: inlinehint nounwind uwtable
define internal i64 @UInt32GetDatum(i32 noundef %0) #2 {
  %2 = alloca i32, align 4
  store i32 %0, ptr %2, align 4
  %3 = load i32, ptr %2, align 4
  %4 = zext i32 %3 to i64
  ret i64 %4
}

; Function Attrs: inlinehint nounwind uwtable
define internal ptr @DatumGetPointer(i64 noundef %0) #2 {
  %2 = alloca i64, align 8
  store i64 %0, ptr %2, align 8
  %3 = load i64, ptr %2, align 8
  %4 = inttoptr i64 %3 to ptr
  ret ptr %4
}

; Function Attrs: inlinehint nounwind uwtable
define internal i64 @hash_any(ptr noundef %0, i32 noundef %1) #2 {
  %3 = alloca ptr, align 8
  %4 = alloca i32, align 4
  store ptr %0, ptr %3, align 8
  store i32 %1, ptr %4, align 4
  %5 = load ptr, ptr %3, align 8
  %6 = load i32, ptr %4, align 4
  %7 = call i32 @hash_bytes(ptr noundef %5, i32 noundef %6)
  %8 = call i64 @UInt32GetDatum(i32 noundef %7)
  ret i64 %8
}

; Function Attrs: inlinehint nounwind uwtable
define internal ptr @DatumGetInetPP(i64 noundef %0) #2 {
  %2 = alloca i64, align 8
  store i64 %0, ptr %2, align 8
  %3 = load i64, ptr %2, align 8
  %4 = call ptr @DatumGetPointer(i64 noundef %3)
  %5 = call ptr @pg_detoast_datum_packed(ptr noundef %4)
  ret ptr %5
}

; Function Attrs: nounwind uwtable
define dso_local i64 @hashinet(ptr noundef %0) #0 {
  %2 = alloca ptr, align 8
  %3 = alloca ptr, align 8
  %4 = alloca i32, align 4
  store ptr %0, ptr %2, align 8
  call void @llvm.lifetime.start.p0(i64 8, ptr %3) #8
  %5 = load ptr, ptr %2, align 8
  %6 = getelementptr inbounds nuw %struct.FunctionCallInfoBaseData, ptr %5, i32 0, i32 6
  %7 = getelementptr inbounds [0 x %struct.NullableDatum], ptr %6, i64 0, i64 0
  %8 = getelementptr inbounds nuw %struct.NullableDatum, ptr %7, i32 0, i32 0
  %9 = load i64, ptr %8, align 8
  %10 = call ptr @DatumGetInetPP(i64 noundef %9)
  store ptr %10, ptr %3, align 8
  call void @llvm.lifetime.start.p0(i64 4, ptr %4) #8
  %11 = load ptr, ptr %3, align 8
  %12 = getelementptr inbounds nuw %struct.varattrib_1b, ptr %11, i32 0, i32 0
  %13 = load i8, ptr %12, align 1
  %14 = zext i8 %13 to i32
  %15 = and i32 %14, 1
  %16 = icmp eq i32 %15, 1
  br i1 %16, label %17, label %21

17:                                               ; preds = %1
  %18 = load ptr, ptr %3, align 8
  %19 = getelementptr inbounds nuw %struct.varattrib_1b, ptr %18, i32 0, i32 1
  %20 = getelementptr inbounds [0 x i8], ptr %19, i64 0, i64 0
  br label %25

21:                                               ; preds = %1
  %22 = load ptr, ptr %3, align 8
  %23 = getelementptr inbounds nuw %struct.anon, ptr %22, i32 0, i32 1
  %24 = getelementptr inbounds [0 x i8], ptr %23, i64 0, i64 0
  br label %25

25:                                               ; preds = %21, %17
  %26 = phi ptr [ %20, %17 ], [ %24, %21 ]
  %27 = getelementptr inbounds nuw %struct.inet_struct, ptr %26, i32 0, i32 0
  %28 = load i8, ptr %27, align 1
  %29 = zext i8 %28 to i32
  %30 = icmp eq i32 %29, 2
  %31 = select i1 %30, i32 4, i32 16
  store i32 %31, ptr %4, align 4
  %32 = load ptr, ptr %3, align 8
  %33 = getelementptr inbounds nuw %struct.varattrib_1b, ptr %32, i32 0, i32 0
  %34 = load i8, ptr %33, align 1
  %35 = zext i8 %34 to i32
  %36 = and i32 %35, 1
  %37 = icmp eq i32 %36, 1
  br i1 %37, label %38, label %42

38:                                               ; preds = %25
  %39 = load ptr, ptr %3, align 8
  %40 = getelementptr inbounds nuw %struct.varattrib_1b, ptr %39, i32 0, i32 1
  %41 = getelementptr inbounds [0 x i8], ptr %40, i64 0, i64 0
  br label %46

42:                                               ; preds = %25
  %43 = load ptr, ptr %3, align 8
  %44 = getelementptr inbounds nuw %struct.anon, ptr %43, i32 0, i32 1
  %45 = getelementptr inbounds [0 x i8], ptr %44, i64 0, i64 0
  br label %46

46:                                               ; preds = %42, %38
  %47 = phi ptr [ %41, %38 ], [ %45, %42 ]
  %48 = load i32, ptr %4, align 4
  %49 = add i32 %48, 2
  %50 = call i64 @hash_any(ptr noundef %47, i32 noundef %49)
  call void @llvm.lifetime.end.p0(i64 4, ptr %4) #8
  call void @llvm.lifetime.end.p0(i64 8, ptr %3) #8
  ret i64 %50
}