; Function Attrs: nounwind uwtable
define dso_local range(i64 0, 4294967296) i64 @hashinet(ptr noundef readonly captures(none) %0) local_unnamed_addr #0 {
  %2 = getelementptr inbounds nuw i8, ptr %0, i64 32
  %3 = load i64, ptr %2, align 8
  %4 = inttoptr i64 %3 to ptr
  %5 = tail call ptr @pg_detoast_datum_packed(ptr noundef %4) #14
  %6 = load i8, ptr %5, align 1
  %7 = and i8 %6, 1
  %.not = icmp eq i8 %7, 0
  %.v = select i1 %.not, i64 4, i64 1
  %8 = getelementptr inbounds nuw i8, ptr %5, i64 %.v
  %9 = load i8, ptr %8, align 1
  %10 = icmp eq i8 %9, 2
  %11 = select i1 %10, i32 6, i32 18
  %12 = tail call i32 @hash_bytes(ptr noundef nonnull %8, i32 noundef range(i32 6, 19) %11) #14
  %13 = zext i32 %12 to i64
  ret i64 %13
}